target datalayout = "e-m:e-p270:32:32-p271:32:32-p272:64:64-i64:64-i128:128-f80:128-n8:16:32:64-S128"
target triple = "x86_64-pc-linux-gnu"

%struct.ItemPointerData = type { %struct.BlockIdData, i16 }
%struct.BlockIdData = type { i16, i16 }
%struct.HashScanOpaqueData = type { i32, i32, i32, i8, i8, ptr, i32, %struct.HashScanPosData }
%struct.HashScanPosData = type { i32, i32, i32, i32, i32, i32, i32, [408 x %struct.HashScanPosItem] }
%struct.HashScanPosItem = type { %struct.ItemPointerData, i16 }
%struct.IndexScanDescData = type { ptr, ptr, ptr, i32, i32, ptr, ptr, i8, i8, i8, i8, i8, ptr, ptr, ptr, ptr, ptr, %struct.ItemPointerData, i8, ptr, i8, ptr, ptr, i8, ptr }

; Function Attrs: nounwind uwtable
define dso_local ptr @hashbeginscan(ptr noundef %0, i32 noundef %1, i32 noundef %2) #0 {
  %4 = alloca ptr, align 8
  %5 = alloca i32, align 4
  %6 = alloca i32, align 4
  %7 = alloca ptr, align 8
  %8 = alloca ptr, align 8
  store ptr %0, ptr %4, align 8
  store i32 %1, ptr %5, align 4
  store i32 %2, ptr %6, align 4
  call void @llvm.lifetime.start.p0(i64 8, ptr %7) #6
  call void @llvm.lifetime.start.p0(i64 8, ptr %8) #6
  %9 = load ptr, ptr %4, align 8
  %10 = load i32, ptr %5, align 4
  %11 = load i32, ptr %6, align 4
  %12 = call ptr @RelationGetIndexScan(ptr noundef %9, i32 noundef %10, i32 noundef %11)
  store ptr %12, ptr %7, align 8
  %13 = call ptr @palloc(i64 noundef 3320)
  store ptr %13, ptr %8, align 8
  br label %14

14:                                               ; preds = %3
  %15 = load ptr, ptr %8, align 8
  %16 = getelementptr inbounds nuw %struct.HashScanOpaqueData, ptr %15, i32 0, i32 7
  %17 = getelementptr inbounds nuw %struct.HashScanPosData, ptr %16, i32 0, i32 0
  store i32 0, ptr %17, align 4
  %18 = load ptr, ptr %8, align 8
  %19 = getelementptr inbounds nuw %struct.HashScanOpaqueData, ptr %18, i32 0, i32 7
  %20 = getelementptr inbounds nuw %struct.HashScanPosData, ptr %19, i32 0, i32 1
  store i32 -1, ptr %20, align 4
  %21 = load ptr, ptr %8, align 8
  %22 = getelementptr inbounds nuw %struct.HashScanOpaqueData, ptr %21, i32 0, i32 7
  %23 = getelementptr inbounds nuw %struct.HashScanPosData, ptr %22, i32 0, i32 2
  store i32 -1, ptr %23, align 4
  %24 = load ptr, ptr %8, align 8
  %25 = getelementptr inbounds nuw %struct.HashScanOpaqueData, ptr %24, i32 0, i32 7
  %26 = getelementptr inbounds nuw %struct.HashScanPosData, ptr %25, i32 0, i32 3
  store i32 -1, ptr %26, align 4
  %27 = load ptr, ptr %8, align 8
  %28 = getelementptr inbounds nuw %struct.HashScanOpaqueData, ptr %27, i32 0, i32 7
  %29 = getelementptr inbounds nuw %struct.HashScanPosData, ptr %28, i32 0, i32 4
  store i32 0, ptr %29, align 4
  %30 = load ptr, ptr %8, align 8
  %31 = getelementptr inbounds nuw %struct.HashScanOpaqueData, ptr %30, i32 0, i32 7
  %32 = getelementptr inbounds nuw %struct.HashScanPosData, ptr %31, i32 0, i32 5
  store i32 0, ptr %32, align 4
  %33 = load ptr, ptr %8, align 8
  %34 = getelementptr inbounds nuw %struct.HashScanOpaqueData, ptr %33, i32 0, i32 7
  %35 = getelementptr inbounds nuw %struct.HashScanPosData, ptr %34, i32 0, i32 6
  store i32 0, ptr %35, align 4
  br label %36

36:                                               ; preds = %14
  br label %37

37:                                               ; preds = %36
  %38 = load ptr, ptr %8, align 8
  %39 = getelementptr inbounds nuw %struct.HashScanOpaqueData, ptr %38, i32 0, i32 1
  store i32 0, ptr %39, align 4
  %40 = load ptr, ptr %8, align 8
  %41 = getelementptr inbounds nuw %struct.HashScanOpaqueData, ptr %40, i32 0, i32 2
  store i32 0, ptr %41, align 8
  %42 = load ptr, ptr %8, align 8
  %43 = getelementptr inbounds nuw %struct.HashScanOpaqueData, ptr %42, i32 0, i32 3
  store i8 0, ptr %43, align 4
  %44 = load ptr, ptr %8, align 8
  %45 = getelementptr inbounds nuw %struct.HashScanOpaqueData, ptr %44, i32 0, i32 4
  store i8 0, ptr %45, align 1
  %46 = load ptr, ptr %8, align 8
  %47 = getelementptr inbounds nuw %struct.HashScanOpaqueData, ptr %46, i32 0, i32 5
  store ptr null, ptr %47, align 8
  %48 = load ptr, ptr %8, align 8
  %49 = getelementptr inbounds nuw %struct.HashScanOpaqueData, ptr %48, i32 0, i32 6
  store i32 0, ptr %49, align 8
  %50 = load ptr, ptr %8, align 8
  %51 = load ptr, ptr %7, align 8
  %52 = getelementptr inbounds nuw %struct.IndexScanDescData, ptr %51, i32 0, i32 12
  store ptr %50, ptr %52, align 8
  %53 = load ptr, ptr %7, align 8
  call void @llvm.lifetime.end.p0(i64 8, ptr %8) #6
  call void @llvm.lifetime.end.p0(i64 8, ptr %7) #6
  ret ptr %53
}