; Function Attrs: nounwind uwtable
define dso_local ptr @hashbeginscan(ptr noundef %0, i32 noundef %1, i32 noundef %2) #0 {
  %4 = tail call ptr @RelationGetIndexScan(ptr noundef %0, i32 noundef %1, i32 noundef %2) #9
  %5 = tail call ptr @palloc(i64 noundef 3320) #9
  %6 = getelementptr inbounds nuw i8, ptr %5, i64 28
  store i32 0, ptr %6, align 4
  %7 = getelementptr inbounds nuw i8, ptr %5, i64 32
  store i32 -1, ptr %7, align 4
  %8 = getelementptr inbounds nuw i8, ptr %5, i64 36
  store i32 -1, ptr %8, align 4
  %9 = getelementptr inbounds nuw i8, ptr %5, i64 40
  store i32 -1, ptr %9, align 4
  %10 = getelementptr inbounds nuw i8, ptr %5, i64 44
  store i32 0, ptr %10, align 4
  %11 = getelementptr inbounds nuw i8, ptr %5, i64 48
  store i32 0, ptr %11, align 4
  %12 = getelementptr inbounds nuw i8, ptr %5, i64 52
  store i32 0, ptr %12, align 4
  %13 = getelementptr inbounds nuw i8, ptr %5, i64 4
  %14 = getelementptr inbounds nuw i8, ptr %5, i64 16
  store ptr null, ptr %14, align 8
  %15 = getelementptr inbounds nuw i8, ptr %5, i64 24
  store i32 0, ptr %15, align 8
  %16 = getelementptr inbounds nuw i8, ptr %4, i64 56
  tail call void @llvm.memset.p0.i64(ptr noundef nonnull align 4 dereferenceable(10) %13, i8 0, i64 10, i1 false)
  store ptr %5, ptr %16, align 8
  ret ptr %4
}